; Function Attrs: mustprogress nofree norecurse nosync nounwind willreturn memory(argmem: read) uwtable
define internal fastcc noundef zeroext i1 @_ZL17basic_types_matchP6ciTypeS0_(ptr noundef readonly %0, ptr noundef readonly %1) unnamed_addr #7 {
  %3 = icmp eq ptr %0, %1
  br i1 %3, label %14, label %4

4:                                                ; preds = %2
  %5 = getelementptr inbounds i8, ptr %0, i64 24
  %6 = load i8, ptr %5, align 8
  %7 = add i8 %6, -4
  %switch.and.i.i = and i8 %7, -6
  %switch.selectcmp.i.i = icmp eq i8 %switch.and.i.i, 0
  %8 = and i8 %6, -2
  %or.cond.i.i = icmp eq i8 %8, 12
  %spec.select.i = select i1 %or.cond.i.i, i8 12, i8 %6
  %.0.i = select i1 %switch.selectcmp.i.i, i8 10, i8 %spec.select.i
  %9 = getelementptr inbounds i8, ptr %1, i64 24
  %10 = load i8, ptr %9, align 8
  %11 = add i8 %10, -4
  %switch.and.i.i7 = and i8 %11, -6
  %switch.selectcmp.i.i8 = icmp eq i8 %switch.and.i.i7, 0
  %12 = and i8 %10, -2
  %or.cond.i.i9 = icmp eq i8 %12, 12
  %spec.select.i10 = select i1 %or.cond.i.i9, i8 12, i8 %10
  %.0.i11 = select i1 %switch.selectcmp.i.i8, i8 10, i8 %spec.select.i10
  %13 = icmp eq i8 %.0.i, %.0.i11
  br label %14

14:                                               ; preds = %2, %4
  %.0 = phi i1 [ %13, %4 ], [ true, %2 ]
  ret i1 %.0
}